; Function Attrs: mustprogress uwtable
define noundef zeroext i1 @_ZN10StringList6SearchEPKwb(ptr nocapture noundef nonnull align 8 dereferenceable(184) %0, ptr noundef %1, i1 noundef zeroext %2) local_unnamed_addr #2 align 2 {
  %4 = getelementptr inbounds i8, ptr %0, i64 176
  %5 = load i64, ptr %4, align 8
  %6 = icmp ult i64 %5, 16
  br i1 %6, label %7, label %_ZN10StringList12SavePositionEv.exit

7:                                                ; preds = %3
  %8 = getelementptr inbounds i8, ptr %0, i64 32
  %9 = load i64, ptr %8, align 8
  %10 = getelementptr inbounds i8, ptr %0, i64 48
  %11 = getelementptr inbounds [16 x i64], ptr %10, i64 0, i64 %5
  store i64 %9, ptr %11, align 8
  %12 = load i64, ptr %4, align 8
  %13 = add i64 %12, 1
  store i64 %13, ptr %4, align 8
  br label %_ZN10StringList12SavePositionEv.exit

_ZN10StringList12SavePositionEv.exit:             ; preds = %3, %7
  %14 = phi i64 [ %5, %3 ], [ %13, %7 ]
  %15 = getelementptr inbounds i8, ptr %0, i64 32
  store i64 0, ptr %15, align 8
  %16 = getelementptr inbounds i8, ptr %0, i64 8
  %.not15 = icmp eq ptr %1, null
  br i1 %.not15, label %_ZN10StringList12SavePositionEv.exit.split.us, label %_ZN10StringList12SavePositionEv.exit.split

_ZN10StringList12SavePositionEv.exit.split.us:    ; preds = %_ZN10StringList12SavePositionEv.exit
  %17 = load i64, ptr %16, align 8
  %.not.i.us.not = icmp eq i64 %17, 0
  br i1 %.not.i.us.not, label %_ZN10StringList9GetStringEPPw.exit, label %18

18:                                               ; preds = %_ZN10StringList12SavePositionEv.exit.split.us
  %19 = load ptr, ptr %0, align 8
  %20 = tail call i64 @wcslen(ptr noundef nonnull %19) #15
  %21 = add i64 %20, 1
  store i64 %21, ptr %15, align 8
  br label %_ZN10StringList9GetStringEPPw.exit

_ZN10StringList12SavePositionEv.exit.split:       ; preds = %_ZN10StringList12SavePositionEv.exit
  br i1 %2, label %_ZN10StringList12SavePositionEv.exit.split.split.us, label %_ZN10StringList12SavePositionEv.exit.split.split

_ZN10StringList12SavePositionEv.exit.split.split.us: ; preds = %_ZN10StringList12SavePositionEv.exit.split
  %22 = load i64, ptr %16, align 8
  %23 = load ptr, ptr %0, align 8
  %.fr17 = freeze ptr %23
  %.not18 = icmp eq ptr %.fr17, null
  br i1 %.not18, label %_ZN10StringList12SavePositionEv.exit.split.split.us.split, label %_ZN10StringList12SavePositionEv.exit.split.split.us.split.us

_ZN10StringList12SavePositionEv.exit.split.split.us.split.us: ; preds = %_ZN10StringList12SavePositionEv.exit.split.split.us, %25
  %24 = phi i64 [ %29, %25 ], [ 0, %_ZN10StringList12SavePositionEv.exit.split.split.us ]
  %.not.i.us11.us = icmp ult i64 %24, %22
  br i1 %.not.i.us11.us, label %25, label %_ZN10StringList9GetStringEPPw.exit

25:                                               ; preds = %_ZN10StringList12SavePositionEv.exit.split.split.us.split.us
  %26 = getelementptr inbounds i32, ptr %.fr17, i64 %24
  %27 = tail call i64 @wcslen(ptr noundef nonnull %26) #15
  %28 = add nuw i64 %24, 1
  %29 = add i64 %28, %27
  store i64 %29, ptr %15, align 8
  %30 = tail call i32 @wcscmp(ptr noundef nonnull %1, ptr noundef nonnull %26) #15
  %.not.us.us = icmp eq i32 %30, 0
  br i1 %.not.us.us, label %_ZN10StringList9GetStringEPPw.exit, label %_ZN10StringList12SavePositionEv.exit.split.split.us.split.us, !llvm.loop !4

_ZN10StringList12SavePositionEv.exit.split.split.us.split: ; preds = %_ZN10StringList12SavePositionEv.exit.split.split.us
  %.not.i.us11.not = icmp eq i64 %22, 0
  br i1 %.not.i.us11.not, label %_ZN10StringList9GetStringEPPw.exit, label %31

31:                                               ; preds = %_ZN10StringList12SavePositionEv.exit.split.split.us.split
  %32 = tail call i64 @wcslen(ptr noundef nonnull null) #15
  %33 = add i64 %32, 1
  store i64 %33, ptr %15, align 8
  br label %_ZN10StringList9GetStringEPPw.exit

_ZN10StringList12SavePositionEv.exit.split.split: ; preds = %_ZN10StringList12SavePositionEv.exit.split, %42
  %34 = load i64, ptr %15, align 8
  %35 = load i64, ptr %16, align 8
  %.not.i = icmp ult i64 %34, %35
  br i1 %.not.i, label %36, label %_ZN10StringList9GetStringEPPw.exit.loopexit19

36:                                               ; preds = %_ZN10StringList12SavePositionEv.exit.split.split
  %37 = load ptr, ptr %0, align 8
  %38 = getelementptr inbounds i32, ptr %37, i64 %34
  %39 = tail call i64 @wcslen(ptr noundef nonnull %38) #15
  %40 = add nuw i64 %34, 1
  %41 = add i64 %40, %39
  store i64 %41, ptr %15, align 8
  %.not16 = icmp eq ptr %37, null
  br i1 %.not16, label %_ZN10StringList9GetStringEPPw.exit.loopexit19, label %42

42:                                               ; preds = %36
  %43 = tail call noundef i32 @_Z8wcsicompPKwS0_(ptr noundef nonnull %1, ptr noundef nonnull %38)
  %.not = icmp eq i32 %43, 0
  br i1 %.not, label %_ZN10StringList9GetStringEPPw.exit.loopexit19, label %_ZN10StringList12SavePositionEv.exit.split.split, !llvm.loop !4

_ZN10StringList9GetStringEPPw.exit.loopexit19:    ; preds = %42, %36, %_ZN10StringList12SavePositionEv.exit.split.split
  %.pre = load i64, ptr %4, align 8
  br label %_ZN10StringList9GetStringEPPw.exit

_ZN10StringList9GetStringEPPw.exit:               ; preds = %_ZN10StringList12SavePositionEv.exit.split.split.us.split.us, %25, %_ZN10StringList9GetStringEPPw.exit.loopexit19, %_ZN10StringList12SavePositionEv.exit.split.us, %18, %_ZN10StringList12SavePositionEv.exit.split.split.us.split, %31
  %44 = phi i64 [ %14, %31 ], [ %14, %_ZN10StringList12SavePositionEv.exit.split.split.us.split ], [ %14, %18 ], [ %14, %_ZN10StringList12SavePositionEv.exit.split.us ], [ %.pre, %_ZN10StringList9GetStringEPPw.exit.loopexit19 ], [ %14, %25 ], [ %14, %_ZN10StringList12SavePositionEv.exit.split.split.us.split.us ]
  %.us-phi = phi i1 [ true, %31 ], [ false, %_ZN10StringList12SavePositionEv.exit.split.split.us.split ], [ true, %18 ], [ false, %_ZN10StringList12SavePositionEv.exit.split.us ], [ %.not.i, %_ZN10StringList9GetStringEPPw.exit.loopexit19 ], [ %.not.i.us11.us, %25 ], [ %.not.i.us11.us, %_ZN10StringList12SavePositionEv.exit.split.split.us.split.us ]
  %.not.i8 = icmp eq i64 %44, 0
  br i1 %.not.i8, label %_ZN10StringList15RestorePositionEv.exit, label %45

45:                                               ; preds = %_ZN10StringList9GetStringEPPw.exit
  %46 = add i64 %44, -1
  store i64 %46, ptr %4, align 8
  %47 = getelementptr inbounds i8, ptr %0, i64 48
  %48 = getelementptr inbounds [16 x i64], ptr %47, i64 0, i64 %46
  %49 = load i64, ptr %48, align 8
  store i64 %49, ptr %15, align 8
  br label %_ZN10StringList15RestorePositionEv.exit

_ZN10StringList15RestorePositionEv.exit:          ; preds = %_ZN10StringList9GetStringEPPw.exit, %45
  ret i1 %.us-phi
}